target datalayout = "e-m:e-p270:32:32-p271:32:32-p272:64:64-i64:64-i128:128-f80:128-n8:16:32:64-S128"
target triple = "x86_64-pc-linux-gnu"

%struct.dbd_list_msg_t = type { ptr, i32 }

@.str.1 = private unnamed_addr constant [18 x i8] c"Unknown pack type\00", align 1

; Function Attrs: nounwind uwtable
define dso_local void @slurmdbd_pack_list_msg(ptr noundef %0, i16 noundef zeroext %1, i32 noundef %2, ptr noundef %3) #0 {
  %5 = alloca ptr, align 8
  %6 = alloca i16, align 2
  %7 = alloca i32, align 4
  %8 = alloca ptr, align 8
  %9 = alloca i32, align 4
  %10 = alloca ptr, align 8
  %11 = alloca i32, align 4
  store ptr %0, ptr %5, align 8
  store i16 %1, ptr %6, align 2
  store i32 %2, ptr %7, align 4
  store ptr %3, ptr %8, align 8
  call void @llvm.lifetime.start.p0(i64 4, ptr %9) #5
  call void @llvm.lifetime.start.p0(i64 8, ptr %10) #5
  %12 = load i32, ptr %7, align 4
  switch i32 %12, label %43 [
    i32 1402, label %13
    i32 1416, label %13
    i32 1485, label %14
    i32 1487, label %14
    i32 1404, label %15
    i32 1417, label %15
    i32 1469, label %15
    i32 1405, label %16
    i32 1419, label %16
    i32 1493, label %17
    i32 1495, label %17
    i32 1467, label %18
    i32 1421, label %19
    i32 1488, label %19
    i32 1422, label %20
    i32 1447, label %21
    i32 1449, label %21
    i32 1465, label %22
    i32 1477, label %23
    i32 1479, label %23
    i32 1452, label %24
    i32 1454, label %24
    i32 1406, label %25
    i32 1423, label %25
    i32 1446, label %26
    i32 1471, label %27
    i32 1504, label %28
    i32 1472, label %29
    i32 1473, label %40
    i32 1498, label %41
    i32 1474, label %42
    i32 1475, label %42
  ]

13:                                               ; preds = %4, %4
  store ptr @slurmdb_pack_account_rec, ptr %10, align 8
  br label %44

14:                                               ; preds = %4, %4
  store ptr @slurmdb_pack_tres_rec, ptr %10, align 8
  br label %44

15:                                               ; preds = %4, %4, %4
  store ptr @slurmdb_pack_assoc_rec, ptr %10, align 8
  br label %44

16:                                               ; preds = %4, %4
  store ptr @slurmdb_pack_cluster_rec, ptr %10, align 8
  br label %44

17:                                               ; preds = %4, %4
  store ptr @slurmdb_pack_federation_rec, ptr %10, align 8
  br label %44

18:                                               ; preds = %4
  store ptr @pack_config_key_pair, ptr %10, align 8
  br label %44

19:                                               ; preds = %4, %4
  store ptr @slurmdb_pack_job_rec, ptr %10, align 8
  br label %44

20:                                               ; preds = %4
  store ptr @packstr_func, ptr %10, align 8
  br label %44

21:                                               ; preds = %4, %4
  store ptr @slurmdb_pack_qos_rec, ptr %10, align 8
  br label %44

22:                                               ; preds = %4
  store ptr @slurmdb_pack_reservation_rec, ptr %10, align 8
  br label %44

23:                                               ; preds = %4, %4
  store ptr @slurmdb_pack_res_rec, ptr %10, align 8
  br label %44

24:                                               ; preds = %4, %4
  store ptr @slurmdb_pack_wckey_rec, ptr %10, align 8
  br label %44

25:                                               ; preds = %4, %4
  store ptr @slurmdb_pack_user_rec, ptr %10, align 8
  br label %44

26:                                               ; preds = %4
  store ptr @slurmdb_pack_txn_rec, ptr %10, align 8
  br label %44

27:                                               ; preds = %4
  store ptr @slurmdb_pack_event_rec, ptr %10, align 8
  br label %44

28:                                               ; preds = %4
  store ptr @slurmdb_pack_instance_rec, ptr %10, align 8
  br label %44

29:                                               ; preds = %4
  %30 = load ptr, ptr %5, align 8
  %31 = getelementptr inbounds nuw %struct.dbd_list_msg_t, ptr %30, i32 0, i32 0
  %32 = load ptr, ptr %31, align 8
  %33 = load ptr, ptr %8, align 8
  %34 = load i16, ptr %6, align 2
  %35 = call i32 @slurm_pack_list_until(ptr noundef %32, ptr noundef @_pack_job_start_msg, ptr noundef %33, i32 noundef 1073741824, i16 noundef zeroext %34)
  %36 = load ptr, ptr %5, align 8
  %37 = getelementptr inbounds nuw %struct.dbd_list_msg_t, ptr %36, i32 0, i32 1
  %38 = load i32, ptr %37, align 8
  %39 = load ptr, ptr %8, align 8
  call void @pack32(i32 noundef %38, ptr noundef %39)
  store i32 1, ptr %11, align 4
  br label %62

40:                                               ; preds = %4
  store ptr @slurmdbd_pack_id_rc_msg, ptr %10, align 8
  br label %44

41:                                               ; preds = %4
  store ptr @_pack_job_heavy_msg, ptr %10, align 8
  br label %44

42:                                               ; preds = %4, %4
  store ptr @_pack_buffer, ptr %10, align 8
  br label %44

43:                                               ; preds = %4
  call void (ptr, ...) @fatal(ptr noundef @.str.1) #7
  unreachable

44:                                               ; preds = %42, %41, %40, %28, %27, %26, %25, %24, %23, %22, %21, %20, %19, %18, %17, %16, %15, %14, %13
  %45 = load ptr, ptr %5, align 8
  %46 = getelementptr inbounds nuw %struct.dbd_list_msg_t, ptr %45, i32 0, i32 0
  %47 = load ptr, ptr %46, align 8
  %48 = load ptr, ptr %10, align 8
  %49 = load ptr, ptr %8, align 8
  %50 = load i16, ptr %6, align 2
  %51 = call i32 @slurm_pack_list(ptr noundef %47, ptr noundef %48, ptr noundef %49, i16 noundef zeroext %50)
  store i32 %51, ptr %9, align 4
  %52 = icmp ne i32 %51, 0
  br i1 %52, label %53, label %57

53:                                               ; preds = %44
  %54 = load i32, ptr %9, align 4
  %55 = load ptr, ptr %5, align 8
  %56 = getelementptr inbounds nuw %struct.dbd_list_msg_t, ptr %55, i32 0, i32 1
  store i32 %54, ptr %56, align 8
  br label %57

57:                                               ; preds = %53, %44
  %58 = load ptr, ptr %5, align 8
  %59 = getelementptr inbounds nuw %struct.dbd_list_msg_t, ptr %58, i32 0, i32 1
  %60 = load i32, ptr %59, align 8
  %61 = load ptr, ptr %8, align 8
  call void @pack32(i32 noundef %60, ptr noundef %61)
  store i32 0, ptr %11, align 4
  br label %62

62:                                               ; preds = %57, %29
  call void @llvm.lifetime.end.p0(i64 8, ptr %10) #5
  call void @llvm.lifetime.end.p0(i64 4, ptr %9) #5
  %63 = load i32, ptr %11, align 4
  switch i32 %63, label %65 [
    i32 0, label %64
    i32 1, label %64
  ]

64:                                               ; preds = %62, %62
  ret void

65:                                               ; preds = %62
  unreachable
}