; Function Attrs: nounwind uwtable
define dso_local void @slurmdbd_pack_list_msg(ptr noundef captures(none) %0, i16 noundef zeroext %1, i32 noundef %2, ptr noundef %3) local_unnamed_addr #0 {
  switch i32 %2, label %28 [
    i32 1402, label %29
    i32 1416, label %29
    i32 1485, label %5
    i32 1487, label %5
    i32 1404, label %6
    i32 1417, label %6
    i32 1469, label %6
    i32 1405, label %7
    i32 1419, label %7
    i32 1493, label %8
    i32 1495, label %8
    i32 1467, label %9
    i32 1421, label %10
    i32 1488, label %10
    i32 1422, label %11
    i32 1447, label %12
    i32 1449, label %12
    i32 1465, label %13
    i32 1477, label %14
    i32 1479, label %14
    i32 1452, label %15
    i32 1454, label %15
    i32 1406, label %16
    i32 1423, label %16
    i32 1446, label %17
    i32 1471, label %18
    i32 1504, label %19
    i32 1472, label %20
    i32 1473, label %25
    i32 1498, label %26
    i32 1474, label %27
    i32 1475, label %27
  ]

5:                                                ; preds = %4, %4
  br label %29

6:                                                ; preds = %4, %4, %4
  br label %29

7:                                                ; preds = %4, %4
  br label %29

8:                                                ; preds = %4, %4
  br label %29

9:                                                ; preds = %4
  br label %29

10:                                               ; preds = %4, %4
  br label %29

11:                                               ; preds = %4
  br label %29

12:                                               ; preds = %4, %4
  br label %29

13:                                               ; preds = %4
  br label %29

14:                                               ; preds = %4, %4
  br label %29

15:                                               ; preds = %4, %4
  br label %29

16:                                               ; preds = %4, %4
  br label %29

17:                                               ; preds = %4
  br label %29

18:                                               ; preds = %4
  br label %29

19:                                               ; preds = %4
  br label %29

20:                                               ; preds = %4
  %21 = load ptr, ptr %0, align 8
  %22 = tail call i32 @slurm_pack_list_until(ptr noundef %21, ptr noundef nonnull @_pack_job_start_msg, ptr noundef %3, i32 noundef 1073741824, i16 noundef zeroext %1) #5
  %23 = getelementptr inbounds nuw i8, ptr %0, i64 8
  %24 = load i32, ptr %23, align 8
  br label %33

25:                                               ; preds = %4
  br label %29

26:                                               ; preds = %4
  br label %29

27:                                               ; preds = %4, %4
  br label %29

28:                                               ; preds = %4
  tail call void (ptr, ...) @fatal(ptr noundef nonnull @.str.1) #6
  unreachable

29:                                               ; preds = %4, %4, %27, %26, %25, %19, %18, %17, %16, %15, %14, %13, %12, %11, %10, %9, %8, %7, %6, %5
  %.0 = phi ptr [ @_pack_buffer, %27 ], [ @_pack_job_heavy_msg, %26 ], [ @slurmdbd_pack_id_rc_msg, %25 ], [ @slurmdb_pack_instance_rec, %19 ], [ @slurmdb_pack_event_rec, %18 ], [ @slurmdb_pack_txn_rec, %17 ], [ @slurmdb_pack_user_rec, %16 ], [ @slurmdb_pack_wckey_rec, %15 ], [ @slurmdb_pack_res_rec, %14 ], [ @slurmdb_pack_reservation_rec, %13 ], [ @slurmdb_pack_qos_rec, %12 ], [ @packstr_func, %11 ], [ @slurmdb_pack_job_rec, %10 ], [ @pack_config_key_pair, %9 ], [ @slurmdb_pack_federation_rec, %8 ], [ @slurmdb_pack_cluster_rec, %7 ], [ @slurmdb_pack_assoc_rec, %6 ], [ @slurmdb_pack_tres_rec, %5 ], [ @slurmdb_pack_account_rec, %4 ], [ @slurmdb_pack_account_rec, %4 ]
  %30 = load ptr, ptr %0, align 8
  %31 = tail call i32 @slurm_pack_list(ptr noundef %30, ptr noundef nonnull %.0, ptr noundef %3, i16 noundef zeroext %1) #5
  %.not = icmp eq i32 %31, 0
  %.phi.trans.insert = getelementptr inbounds nuw i8, ptr %0, i64 8
  br i1 %.not, label %._crit_edge, label %32

._crit_edge:                                      ; preds = %29
  %.pre = load i32, ptr %.phi.trans.insert, align 8
  br label %33

32:                                               ; preds = %29
  store i32 %31, ptr %.phi.trans.insert, align 8
  br label %33

33:                                               ; preds = %32, %._crit_edge, %20
  %.sink = phi i32 [ %24, %20 ], [ %.pre, %._crit_edge ], [ %31, %32 ]
  tail call void @pack32(i32 noundef %.sink, ptr noundef %3) #5
  ret void
}